target datalayout = "e-m:e-p270:32:32-p271:32:32-p272:64:64-i64:64-i128:128-f80:128-n8:16:32:64-S128"
target triple = "x86_64-pc-linux-gnu"

%struct.rlimit = type { i64, i64 }

@.str.72 = private unnamed_addr constant [10 x i8] c"getrlimit\00", align 1

; Function Attrs: inlinehint nounwind sspstrong willreturn memory(none) uwtable
define internal i64 @RB_INT2FIX(i64 noundef %0) #4 {
  %2 = alloca i64, align 8
  %3 = alloca i64, align 8
  %4 = alloca i64, align 8
  %5 = alloca i64, align 8
  %6 = alloca i64, align 8
  %7 = alloca i64, align 8
  store i64 %0, ptr %2, align 8, !tbaa !35
  call void @llvm.lifetime.start.p0(i64 8, ptr %3) #27
  %8 = load i64, ptr %2, align 8, !tbaa !35
  store i64 %8, ptr %3, align 8, !tbaa !35
  call void @llvm.lifetime.start.p0(i64 8, ptr %4) #27
  %9 = load i64, ptr %3, align 8, !tbaa !35
  %10 = shl i64 %9, 1
  %11 = add i64 %10, 1
  store i64 %11, ptr %4, align 8, !tbaa !35
  call void @llvm.lifetime.start.p0(i64 8, ptr %5) #27
  %12 = load i64, ptr %4, align 8, !tbaa !35
  store i64 %12, ptr %5, align 8, !tbaa !35
  call void @llvm.lifetime.start.p0(i64 8, ptr %6) #27
  %13 = load i64, ptr %5, align 8, !tbaa !35
  store i64 %13, ptr %6, align 8, !tbaa !35
  call void @llvm.lifetime.start.p0(i64 8, ptr %7) #27
  %14 = load i64, ptr %6, align 8, !tbaa !35
  store i64 %14, ptr %7, align 8, !tbaa !35
  %15 = load i64, ptr %7, align 8, !tbaa !35
  call void @llvm.lifetime.end.p0(i64 8, ptr %7) #27
  call void @llvm.lifetime.end.p0(i64 8, ptr %6) #27
  call void @llvm.lifetime.end.p0(i64 8, ptr %5) #27
  call void @llvm.lifetime.end.p0(i64 8, ptr %4) #27
  call void @llvm.lifetime.end.p0(i64 8, ptr %3) #27
  ret i64 %15
}

; Function Attrs: inlinehint nounwind sspstrong uwtable
define internal i64 @rb_ulong2num_inline(i64 noundef %0) #1 {
  %2 = alloca i64, align 8
  %3 = alloca i64, align 8
  store i64 %0, ptr %3, align 8, !tbaa !35
  %4 = load i64, ptr %3, align 8, !tbaa !35
  %5 = icmp ult i64 %4, 4611686018427387904
  br i1 %5, label %6, label %9

6:                                                ; preds = %1
  %7 = load i64, ptr %3, align 8, !tbaa !35
  %8 = call i64 @RB_INT2FIX(i64 noundef %7) #28
  store i64 %8, ptr %2, align 8
  br label %12

9:                                                ; preds = %1
  %10 = load i64, ptr %3, align 8, !tbaa !35
  %11 = call i64 @rb_uint2big(i64 noundef %10)
  store i64 %11, ptr %2, align 8
  br label %12

12:                                               ; preds = %9, %6
  %13 = load i64, ptr %2, align 8
  ret i64 %13
}

; Function Attrs: nounwind sspstrong uwtable
define internal i64 @proc_getrlimit(i64 noundef %0, i64 noundef %1) #0 {
  %3 = alloca i64, align 8
  %4 = alloca i64, align 8
  %5 = alloca %struct.rlimit, align 8
  %6 = alloca i32, align 4
  store i64 %0, ptr %3, align 8, !tbaa !35
  store i64 %1, ptr %4, align 8, !tbaa !35
  call void @llvm.lifetime.start.p0(i64 16, ptr %5) #27
  %7 = load i64, ptr %4, align 8, !tbaa !35
  %8 = call i32 @rlimit_resource_type(i64 noundef %7)
  %9 = call i32 @getrlimit(i32 noundef %8, ptr noundef %5) #27
  %10 = icmp slt i32 %9, 0
  br i1 %10, label %11, label %18

11:                                               ; preds = %2
  br label %12

12:                                               ; preds = %11
  call void @llvm.lifetime.start.p0(i64 4, ptr %6) #27
  %13 = call ptr @rb_errno_ptr()
  %14 = load i32, ptr %13, align 4, !tbaa !34
  store i32 %14, ptr %6, align 4, !tbaa !34
  %15 = load i32, ptr %6, align 4, !tbaa !34
  call void @rb_syserr_fail(i32 noundef %15, ptr noundef @.str.72) #30
  unreachable

16:                                               ; No predecessors!
  br label %17

17:                                               ; preds = %16
  br label %18

18:                                               ; preds = %17, %2
  %19 = getelementptr inbounds nuw %struct.rlimit, ptr %5, i32 0, i32 0
  %20 = load i64, ptr %19, align 8, !tbaa !119
  %21 = call i64 @rb_ulong2num_inline(i64 noundef %20)
  %22 = getelementptr inbounds nuw %struct.rlimit, ptr %5, i32 0, i32 1
  %23 = load i64, ptr %22, align 8, !tbaa !121
  %24 = call i64 @rb_ulong2num_inline(i64 noundef %23)
  %25 = call i64 @rb_assoc_new(i64 noundef %21, i64 noundef %24)
  call void @llvm.lifetime.end.p0(i64 16, ptr %5) #27
  ret i64 %25
}