; Function Attrs: nounwind sspstrong uwtable
define internal i64 @proc_getrlimit(i64 %0, i64 noundef %1) #1 {
  %3 = alloca %struct.rlimit, align 8
  call void @llvm.lifetime.start.p0(i64 16, ptr nonnull %3) #27
  %4 = tail call fastcc i32 @rlimit_resource_type(i64 noundef %1)
  %5 = call i32 @getrlimit(i32 noundef %4, ptr noundef nonnull %3) #27
  %6 = icmp slt i32 %5, 0
  br i1 %6, label %7, label %10

7:                                                ; preds = %2
  %8 = call ptr @rb_errno_ptr() #27
  %9 = load i32, ptr %8, align 4, !tbaa !60
  call void @rb_syserr_fail(i32 noundef %9, ptr noundef nonnull @.str.72) #29
  unreachable

10:                                               ; preds = %2
  %11 = load i64, ptr %3, align 8, !tbaa !173
  %12 = icmp ult i64 %11, 4611686018427387904
  br i1 %12, label %13, label %16

13:                                               ; preds = %10
  %14 = shl nuw nsw i64 %11, 1
  %15 = or disjoint i64 %14, 1
  br label %rb_ulong2num_inline.exit

16:                                               ; preds = %10
  %17 = call i64 @rb_uint2big(i64 noundef %11) #27
  br label %rb_ulong2num_inline.exit

rb_ulong2num_inline.exit:                         ; preds = %13, %16
  %.0.i = phi i64 [ %15, %13 ], [ %17, %16 ]
  %18 = getelementptr inbounds nuw i8, ptr %3, i64 8
  %19 = load i64, ptr %18, align 8, !tbaa !175
  %20 = icmp ult i64 %19, 4611686018427387904
  br i1 %20, label %21, label %24

21:                                               ; preds = %rb_ulong2num_inline.exit
  %22 = shl nuw nsw i64 %19, 1
  %23 = or disjoint i64 %22, 1
  br label %rb_ulong2num_inline.exit3

24:                                               ; preds = %rb_ulong2num_inline.exit
  %25 = call i64 @rb_uint2big(i64 noundef %19) #27
  br label %rb_ulong2num_inline.exit3

rb_ulong2num_inline.exit3:                        ; preds = %21, %24
  %.0.i2 = phi i64 [ %23, %21 ], [ %25, %24 ]
  %26 = call i64 @rb_assoc_new(i64 noundef %.0.i, i64 noundef %.0.i2) #27
  call void @llvm.lifetime.end.p0(i64 16, ptr nonnull %3) #27
  ret i64 %26
}